; Function Attrs: nounwind uwtable
define hidden void @SDL_DestroyEnvironment_REAL(ptr noundef %0) local_unnamed_addr #0 {
  %.not = icmp eq ptr %0, null
  %2 = load ptr, ptr @SDL_environment, align 8
  %3 = icmp eq ptr %0, %2
  %or.cond = select i1 %.not, i1 true, i1 %3
  br i1 %or.cond, label %8, label %4

4:                                                ; preds = %1
  %5 = load ptr, ptr %0, align 8
  tail call void @SDL_DestroyMutex_REAL(ptr noundef %5) #11
  %6 = getelementptr inbounds nuw i8, ptr %0, i64 8
  %7 = load ptr, ptr %6, align 8
  tail call void @SDL_DestroyHashTable(ptr noundef %7) #11
  tail call void @SDL_free_REAL(ptr noundef nonnull %0) #11
  br label %8

8:                                                ; preds = %1, %4
  ret void
}